target datalayout = "e-m:e-p270:32:32-p271:32:32-p272:64:64-i64:64-i128:128-f80:128-n8:16:32:64-S128"
target triple = "x86_64-pc-linux-gnu"

%struct.wpacket_st = type { ptr, ptr, i64, i64, i64, ptr, i8 }

; Function Attrs: nounwind uwtable
define internal i32 @prov_tls13_hkdf_expand(ptr noundef %0, ptr noundef %1, i64 noundef %2, ptr noundef %3, i64 noundef %4, ptr noundef %5, i64 noundef %6, ptr noundef %7, i64 noundef %8, ptr noundef %9, i64 noundef %10) #0 {
  %12 = alloca i32, align 4
  %13 = alloca ptr, align 8
  %14 = alloca ptr, align 8
  %15 = alloca i64, align 8
  %16 = alloca ptr, align 8
  %17 = alloca i64, align 8
  %18 = alloca ptr, align 8
  %19 = alloca i64, align 8
  %20 = alloca ptr, align 8
  %21 = alloca i64, align 8
  %22 = alloca ptr, align 8
  %23 = alloca i64, align 8
  %24 = alloca i64, align 8
  %25 = alloca [2048 x i8], align 16
  %26 = alloca %struct.wpacket_st, align 8
  %27 = alloca i32, align 4
  store ptr %0, ptr %13, align 8, !tbaa !34
  store ptr %1, ptr %14, align 8, !tbaa !28
  store i64 %2, ptr %15, align 8, !tbaa !29
  store ptr %3, ptr %16, align 8, !tbaa !28
  store i64 %4, ptr %17, align 8, !tbaa !29
  store ptr %5, ptr %18, align 8, !tbaa !28
  store i64 %6, ptr %19, align 8, !tbaa !29
  store ptr %7, ptr %20, align 8, !tbaa !28
  store i64 %8, ptr %21, align 8, !tbaa !29
  store ptr %9, ptr %22, align 8, !tbaa !28
  store i64 %10, ptr %23, align 8, !tbaa !29
  call void @llvm.lifetime.start.p0(i64 8, ptr %24) #6
  call void @llvm.lifetime.start.p0(i64 2048, ptr %25) #6
  call void @llvm.lifetime.start.p0(i64 56, ptr %26) #6
  %28 = getelementptr inbounds [2048 x i8], ptr %25, i64 0, i64 0
  %29 = call i32 @WPACKET_init_static_len(ptr noundef %26, ptr noundef %28, i64 noundef 2048, i64 noundef 0)
  %30 = icmp ne i32 %29, 0
  br i1 %30, label %31, label %68

31:                                               ; preds = %11
  %32 = load i64, ptr %23, align 8, !tbaa !29
  %33 = call i32 @WPACKET_put_bytes__(ptr noundef %26, i64 noundef %32, i64 noundef 2)
  %34 = icmp ne i32 %33, 0
  br i1 %34, label %35, label %68

35:                                               ; preds = %31
  %36 = call i32 @WPACKET_start_sub_packet_len__(ptr noundef %26, i64 noundef 1)
  %37 = icmp ne i32 %36, 0
  br i1 %37, label %38, label %68

38:                                               ; preds = %35
  %39 = load ptr, ptr %16, align 8, !tbaa !28
  %40 = load i64, ptr %17, align 8, !tbaa !29
  %41 = call i32 @WPACKET_memcpy(ptr noundef %26, ptr noundef %39, i64 noundef %40)
  %42 = icmp ne i32 %41, 0
  br i1 %42, label %43, label %68

43:                                               ; preds = %38
  %44 = load ptr, ptr %18, align 8, !tbaa !28
  %45 = load i64, ptr %19, align 8, !tbaa !29
  %46 = call i32 @WPACKET_memcpy(ptr noundef %26, ptr noundef %44, i64 noundef %45)
  %47 = icmp ne i32 %46, 0
  br i1 %47, label %48, label %68

48:                                               ; preds = %43
  %49 = call i32 @WPACKET_close(ptr noundef %26)
  %50 = icmp ne i32 %49, 0
  br i1 %50, label %51, label %68

51:                                               ; preds = %48
  %52 = load ptr, ptr %20, align 8, !tbaa !28
  %53 = load ptr, ptr %20, align 8, !tbaa !28
  %54 = icmp eq ptr %53, null
  br i1 %54, label %55, label %56

55:                                               ; preds = %51
  br label %58

56:                                               ; preds = %51
  %57 = load i64, ptr %21, align 8, !tbaa !29
  br label %58

58:                                               ; preds = %56, %55
  %59 = phi i64 [ 0, %55 ], [ %57, %56 ]
  %60 = call i32 @WPACKET_sub_memcpy__(ptr noundef %26, ptr noundef %52, i64 noundef %59, i64 noundef 1)
  %61 = icmp ne i32 %60, 0
  br i1 %61, label %62, label %68

62:                                               ; preds = %58
  %63 = call i32 @WPACKET_get_total_written(ptr noundef %26, ptr noundef %24)
  %64 = icmp ne i32 %63, 0
  br i1 %64, label %65, label %68

65:                                               ; preds = %62
  %66 = call i32 @WPACKET_finish(ptr noundef %26)
  %67 = icmp ne i32 %66, 0
  br i1 %67, label %69, label %68

68:                                               ; preds = %65, %62, %58, %48, %43, %38, %35, %31, %11
  call void @WPACKET_cleanup(ptr noundef %26)
  store i32 0, ptr %12, align 4
  store i32 1, ptr %27, align 4
  br label %78

69:                                               ; preds = %65
  %70 = load ptr, ptr %13, align 8, !tbaa !34
  %71 = load ptr, ptr %14, align 8, !tbaa !28
  %72 = load i64, ptr %15, align 8, !tbaa !29
  %73 = getelementptr inbounds [2048 x i8], ptr %25, i64 0, i64 0
  %74 = load i64, ptr %24, align 8, !tbaa !29
  %75 = load ptr, ptr %22, align 8, !tbaa !28
  %76 = load i64, ptr %23, align 8, !tbaa !29
  %77 = call i32 @HKDF_Expand(ptr noundef %70, ptr noundef %71, i64 noundef %72, ptr noundef %73, i64 noundef %74, ptr noundef %75, i64 noundef %76)
  store i32 %77, ptr %12, align 4
  store i32 1, ptr %27, align 4
  br label %78

78:                                               ; preds = %69, %68
  call void @llvm.lifetime.end.p0(i64 56, ptr %26) #6
  call void @llvm.lifetime.end.p0(i64 2048, ptr %25) #6
  call void @llvm.lifetime.end.p0(i64 8, ptr %24) #6
  %79 = load i32, ptr %12, align 4
  ret i32 %79
}