; Function Attrs: nounwind uwtable
define internal fastcc range(i32 0, 2) i32 @prov_tls13_hkdf_expand(ptr noundef nonnull %0, ptr noundef %1, i64 noundef %2, ptr noundef %3, i64 noundef %4, ptr noundef %5, i64 noundef %6, ptr noundef %7, i64 noundef %8, ptr noundef captures(address_is_null) %9, i64 noundef %10) unnamed_addr #0 {
  %12 = alloca i64, align 8
  %13 = alloca [2048 x i8], align 16
  %14 = alloca %struct.wpacket_st, align 8
  call void @llvm.lifetime.start.p0(i64 8, ptr nonnull %12) #7
  call void @llvm.lifetime.start.p0(i64 2048, ptr nonnull %13) #7
  call void @llvm.lifetime.start.p0(i64 56, ptr nonnull %14) #7
  %15 = call i32 @WPACKET_init_static_len(ptr noundef nonnull %14, ptr noundef nonnull %13, i64 noundef 2048, i64 noundef 0) #7
  %.not = icmp eq i32 %15, 0
  br i1 %.not, label %34, label %16

16:                                               ; preds = %11
  %17 = call i32 @WPACKET_put_bytes__(ptr noundef nonnull %14, i64 noundef %10, i64 noundef 2) #7
  %.not13 = icmp eq i32 %17, 0
  br i1 %.not13, label %34, label %18

18:                                               ; preds = %16
  %19 = call i32 @WPACKET_start_sub_packet_len__(ptr noundef nonnull %14, i64 noundef 1) #7
  %.not14 = icmp eq i32 %19, 0
  br i1 %.not14, label %34, label %20

20:                                               ; preds = %18
  %21 = call i32 @WPACKET_memcpy(ptr noundef nonnull %14, ptr noundef %3, i64 noundef %4) #7
  %.not15 = icmp eq i32 %21, 0
  br i1 %.not15, label %34, label %22

22:                                               ; preds = %20
  %23 = call i32 @WPACKET_memcpy(ptr noundef nonnull %14, ptr noundef %5, i64 noundef %6) #7
  %.not16 = icmp eq i32 %23, 0
  br i1 %.not16, label %34, label %24

24:                                               ; preds = %22
  %25 = call i32 @WPACKET_close(ptr noundef nonnull %14) #7
  %.not17 = icmp eq i32 %25, 0
  br i1 %.not17, label %34, label %26

26:                                               ; preds = %24
  %27 = icmp eq ptr %7, null
  %28 = select i1 %27, i64 0, i64 %8
  %29 = call i32 @WPACKET_sub_memcpy__(ptr noundef nonnull %14, ptr noundef %7, i64 noundef %28, i64 noundef 1) #7
  %.not18 = icmp eq i32 %29, 0
  br i1 %.not18, label %34, label %30

30:                                               ; preds = %26
  %31 = call i32 @WPACKET_get_total_written(ptr noundef nonnull %14, ptr noundef nonnull %12) #7
  %.not19 = icmp eq i32 %31, 0
  br i1 %.not19, label %34, label %32

32:                                               ; preds = %30
  %33 = call i32 @WPACKET_finish(ptr noundef nonnull %14) #7
  %.not20 = icmp eq i32 %33, 0
  br i1 %.not20, label %34, label %35

34:                                               ; preds = %32, %30, %26, %24, %22, %20, %18, %16, %11
  call void @WPACKET_cleanup(ptr noundef nonnull %14) #7
  br label %38

35:                                               ; preds = %32
  %36 = load i64, ptr %12, align 8, !tbaa !37
  %37 = call fastcc i32 @HKDF_Expand(ptr noundef %0, ptr noundef %1, i64 noundef %2, ptr noundef nonnull %13, i64 noundef %36, ptr noundef %9, i64 noundef %10)
  br label %38

38:                                               ; preds = %35, %34
  %.0 = phi i32 [ %37, %35 ], [ 0, %34 ]
  call void @llvm.lifetime.end.p0(i64 56, ptr nonnull %14) #7
  call void @llvm.lifetime.end.p0(i64 2048, ptr nonnull %13) #7
  call void @llvm.lifetime.end.p0(i64 8, ptr nonnull %12) #7
  ret i32 %.0
}